; Function Attrs: nounwind uwtable
define ptr @l_Lean_PrettyPrinter_ppExprLegacy___lambda__1___boxed(ptr noundef %0, ptr noundef %1, ptr noundef %2, ptr noundef %3, ptr noundef %4, ptr noundef %5, ptr noundef %6, ptr noundef %7, ptr noundef %8) local_unnamed_addr #0 {
  %10 = ptrtoint ptr %1 to i64
  %11 = lshr i64 %10, 1
  %12 = trunc i64 %11 to i8
  %13 = and i64 %10, 1
  %.not = icmp eq i64 %13, 0
  br i1 %.not, label %14, label %lean_dec.exit12

14:                                               ; preds = %9
  %15 = load i32, ptr %1, align 4, !tbaa !4
  %16 = icmp sgt i32 %15, 1
  br i1 %16, label %17, label %19, !prof !11

17:                                               ; preds = %14
  %18 = add nsw i32 %15, -1
  store i32 %18, ptr %1, align 4, !tbaa !4
  br label %lean_dec.exit12

19:                                               ; preds = %14
  %.not.i = icmp eq i32 %15, 0
  br i1 %.not.i, label %lean_dec.exit12, label %20

20:                                               ; preds = %19
  tail call void @lean_dec_ref_cold(ptr noundef nonnull %1) #6
  br label %lean_dec.exit12

lean_dec.exit12:                                  ; preds = %20, %19, %17, %9
  %21 = tail call ptr @l_Lean_PrettyPrinter_ppExprLegacy___lambda__1(ptr noundef %0, i8 noundef zeroext %12, ptr noundef %2, ptr noundef %3, ptr noundef %4, ptr poison, ptr noundef %6, ptr noundef %7, ptr noundef %8)
  %22 = ptrtoint ptr %5 to i64
  %23 = and i64 %22, 1
  %.not15 = icmp eq i64 %23, 0
  br i1 %.not15, label %24, label %lean_dec.exit

24:                                               ; preds = %lean_dec.exit12
  %25 = load i32, ptr %5, align 4, !tbaa !4
  %26 = icmp sgt i32 %25, 1
  br i1 %26, label %27, label %29, !prof !11

27:                                               ; preds = %24
  %28 = add nsw i32 %25, -1
  store i32 %28, ptr %5, align 4, !tbaa !4
  br label %lean_dec.exit

29:                                               ; preds = %24
  %.not.i13 = icmp eq i32 %25, 0
  br i1 %.not.i13, label %lean_dec.exit, label %30

30:                                               ; preds = %29
  tail call void @lean_dec_ref_cold(ptr noundef nonnull %5) #6
  br label %lean_dec.exit

lean_dec.exit:                                    ; preds = %30, %29, %27, %lean_dec.exit12
  ret ptr %21
}